Certificate:
    Data:
        Version: 3 (0x2)
        Serial Number: 16492977055686400647 (0xe4e2d33fa4db1a87)
    Signature Algorithm: sha1WithRSAEncryption
        Issuer: C=JP, ST=Osaka, O=PLAN-B co.,Ltd, OU=System Div., CN=PLAN-B co.,Ltd/emailAddress=webmaster@pb-group.tk
        Validity
            Not Before: Apr 15 07:51:19 2014 GMT
            Not After : Apr 12 07:51:19 2024 GMT
        Subject: C=JP, ST=Osaka, O=PLAN-B co.,Ltd, OU=System Div., CN=PLAN-B co.,Ltd/emailAddress=webmaster@pb-group.tk
        Subject Public Key Info:
            Public Key Algorithm: rsaEncryption
                Public-Key: (2048 bit)
                Modulus:
                    00:ee:f5:ca:74:32:35:a6:95:87:f8:fb:6f:6e:fb:
                    f4:58:e7:e5:67:c0:da:24:ca:3e:0d:80:85:0d:9e:
                    a4:b8:0f:72:b5:ba:06:13:f3:ac:53:c5:25:9f:f8:
                    a1:3b:6e:c7:82:5a:a4:19:88:6c:63:2c:9f:26:b9:
                    c9:27:32:58:e6:e8:46:a1:8f:b9:a4:9d:a1:c7:e7:
                    cf:b1:0a:c7:a7:34:8d:44:43:9a:27:2f:a1:aa:f8:
                    49:fd:97:d6:2f:04:45:19:2b:08:a9:f7:98:00:4e:
                    95:32:fa:95:1a:63:6f:2f:47:b3:bf:af:7d:fa:0c:
                    32:7f:a3:8b:62:21:1f:aa:cb:fc:a5:36:a0:a3:6a:
                    2f:01:f1:db:73:bb:ec:63:ac:ef:b1:2f:e5:8b:a7:
                    bb:bc:f7:90:f0:41:05:cd:ec:85:3c:d6:17:94:b3:
                    85:14:60:6d:fa:c0:12:92:7e:9d:3e:fa:27:69:f0:
                    38:ce:08:80:a3:69:23:86:5f:10:aa:62:ed:b7:37:
                    e0:c5:03:da:a8:bc:28:b9:f7:c5:16:29:8b:78:c5:
                    9c:e6:2f:0b:69:16:1a:2b:77:e4:04:d5:99:58:ae:
                    78:1d:c8:ec:fa:b9:ba:5c:f8:5b:e3:b5:78:77:51:
                    8b:5d:5f:a7:c6:07:bc:6d:d7:a6:c7:31:ae:c6:c9:
                    7d:01
                Exponent: 65537 (0x10001)
        X509v3 extensions:
            X509v3 Subject Key Identifier:
                54:F4:58:AF:9C:7C:62:5F:C5:D3:4C:63:22:05:82:09:88:BE:BB:AD
            X509v3 Authority Key Identifier:
                keyid:54:F4:58:AF:9C:7C:62:5F:C5:D3:4C:63:22:05:82:09:88:BE:BB:AD

            X509v3 Basic Constraints:
                CA:TRUE
    Signature Algorithm: sha1WithRSAEncryption
         e6:83:53:ad:55:a2:06:85:d7:1e:44:86:ec:ca:a1:ed:47:25:
         66:67:1a:c9:07:7b:32:1f:53:06:27:e6:a8:73:ba:49:98:38:
         79:a7:51:61:b4:de:2d:b4:cd:b6:b1:46:67:f0:8d:f5:11:11:
         98:dd:a0:64:e6:d0:fc:7d:42:5e:d4:1e:8d:f6:05:47:05:fa:
         86:d1:c7:1e:67:be:a5:4b:4d:a9:b7:c1:67:e5:8c:3e:92:4b:
         bc:75:62:2a:b7:1c:6f:a6:59:da:63:46:b2:c1:8b:db:21:9a:
         43:ba:84:e3:35:d2:cf:d4:ef:e8:69:a4:74:13:99:44:ae:4b:
         23:76:b7:48:8c:c9:ed:d2:01:ea:12:80:8d:56:c7:d2:e7:7d:
         6c:e0:84:cc:f6:a0:69:4c:eb:b9:f6:e4:b2:a8:24:f4:1c:c7:
         e0:2a:72:27:94:6a:1b:2c:67:8e:62:94:0d:d2:c8:28:f8:fc:
         63:2d:54:28:f5:8e:43:e9:f7:c1:c5:a5:f7:46:ed:01:ab:50:
         ec:86:c2:09:ed:de:6a:69:02:54:c9:78:93:08:65:34:c0:9e:
         3b:ff:7b:5a:5e:14:6f:bd:1c:ec:95:fa:44:8d:1b:ad:b8:a8:
         9c:ff:27:61:a7:e2:3d:cf:e5:f5:13:82:d5:aa:d6:28:67:ab:
         06:8e:a1:89
-----BEGIN CERTIFICATE-----
MIID6zCCAtOgAwIBAgIJAOTi0z+k2xqHMA0GCSqGSIb3DQEBBQUAMIGLMQswCQYD
VQQGEwJKUDEOMAwGA1UECAwFT3Nha2ExFzAVBgNVBAoMDlBMQU4tQiBjby4sTHRk
MRQwEgYDVQQLDAtTeXN0ZW0gRGl2LjEXMBUGA1UEAwwOUExBTi1CIGNvLixMdGQx
JDAiBgkqhkiG9w0BCQEWFXdlYm1hc3RlckBwYi1ncm91cC50azAeFw0xNDA0MTUw
NzUxMTlaFw0yNDA0MTIwNzUxMTlaMIGLMQswCQYDVQQGEwJKUDEOMAwGA1UECAwF
T3Nha2ExFzAVBgNVBAoMDlBMQU4tQiBjby4sTHRkMRQwEgYDVQQLDAtTeXN0ZW0g
RGl2LjEXMBUGA1UEAwwOUExBTi1CIGNvLixMdGQxJDAiBgkqhkiG9w0BCQEWFXdl
Ym1hc3RlckBwYi1ncm91cC50azCCASIwDQYJKoZIhvcNAQEBBQADggEPADCCAQoC
ggEBAO71ynQyNaaVh/j7b2779Fjn5WfA2iTKPg2AhQ2epLgPcrW6BhPzrFPFJZ/4
oTtux4JapBmIbGMsnya5yScyWOboRqGPuaSdocfnz7EKx6c0jURDmicvoar4Sf2X
1i8ERRkrCKn3mABOlTL6lRpjby9Hs7+vffoMMn+ji2IhH6rL/KU2oKNqLwHx23O7
7GOs77Ev5Yunu7z3kPBBBc3shTzWF5SzhRRgbfrAEpJ+nT76J2nwOM4IgKNpI4Zf
EKpi7bc34MUD2qi8KLn3xRYpi3jFnOYvC2kWGit35ATVmViueB3I7Pq5ulz4W+O1
eHdRi11fp8YHvG3XpscxrsbJfQECAwEAAaNQME4wHQYDVR0OBBYEFFT0WK+cfGJf
xdNMYyIFggmIvrutMB8GA1UdIwQYMBaAFFT0WK+cfGJfxdNMYyIFggmIvrutMAwG
A1UdEwQFMAMBAf8wDQYJKoZIhvcNAQEFBQADggEBAOaDU61VogaF1x5EhuzKoe1H
JWZnGskHezIfUwYn5qhzukmYOHmnUWG03i20zbaxRmfwjfUREZjdoGTm0Px9Ql7U
Ho32BUcF+obRxx5nvqVLTam3wWfljD6SS7x1Yiq3HG+mWdpjRrLBi9shmkO6hOM1
0s/U7+hppHQTmUSuSyN2t0iMye3SAeoSgI1Wx9LnfWzghMz2oGlM67n25LKoJPQc
x+AqcieUahssZ45ilA3SyCj4/GMtVCj1jkPp98HFpfdG7QGrUOyGwgnt3mppAlTJ
eJMIZTTAnjv/e1peFG+9HOyV+kSNG624qJz/J2Gn4j3P5fUTgtWq1ihnqwaOoYk=
-----END CERTIFICATE-----
