Certificate:
    Data:
        Version: 3 (0x2)
        Serial Number: 16492977055686400648 (0xe4e2d33fa4db1a88)
    Signature Algorithm: sha1WithRSAEncryption
        Issuer: C=JP, ST=Osaka, O=PLAN-B co.,Ltd, OU=System Div., CN=PLAN-B co.,Ltd/emailAddress=webmaster@pb-group.tk
        Validity
            Not Before: Apr 15 07:53:03 2014 GMT
            Not After : Apr 12 07:53:03 2024 GMT
        Subject: C=JP, ST=Osaka, O=PLAN-B co.,Ltd, OU=System Div., CN=*.pb-group.tk/emailAddress=webmaster@pb-group.tk
        Subject Public Key Info:
            Public Key Algorithm: rsaEncryption
                Public-Key: (2048 bit)
                Modulus:
                    00:d6:19:22:2e:b9:75:d2:30:4e:2b:d0:bf:db:ac:
                    2b:5f:fd:d9:ad:64:67:2f:10:b5:5a:c6:e5:b5:49:
                    e0:04:62:6a:4a:ba:a2:d3:79:dd:4e:21:03:ee:cd:
                    69:c7:02:6a:6f:e8:28:c3:79:ce:a2:d0:5c:e7:4d:
                    df:3f:d4:fa:2b:6b:12:b2:ce:1f:aa:3a:91:90:3f:
                    48:7c:6f:c0:26:a0:e5:09:91:9a:06:76:3f:94:8f:
                    e1:4b:56:1a:99:09:3d:ee:0a:8a:53:34:41:0d:c6:
                    9b:bc:ed:f9:0f:79:8a:3f:e6:32:46:b6:20:8a:b2:
                    e9:3c:2e:e4:d9:ee:6b:fd:62:cc:e4:9d:59:8b:62:
                    18:7c:dd:ec:f6:e6:9c:bc:1b:fa:c4:a4:64:62:91:
                    b9:fb:b1:e1:55:24:39:d0:2f:1f:37:e1:8c:55:0c:
                    3c:27:63:41:51:05:be:51:1d:b7:46:4b:fc:ff:ec:
                    12:a1:91:8f:a9:23:0b:72:e1:ce:38:d1:42:f9:de:
                    3b:d2:54:c4:ba:79:81:c3:f1:66:68:b0:de:b8:c5:
                    e8:69:44:fb:72:d2:b2:f8:f1:08:52:48:9f:a8:36:
                    84:4d:8e:63:a4:57:30:ba:cc:22:da:3f:7b:3e:54:
                    96:ed:94:51:3d:09:73:b8:bf:07:ff:77:3b:b2:cd:
                    b7:97
                Exponent: 65537 (0x10001)
        X509v3 extensions:
            X509v3 Basic Constraints:
                CA:FALSE
            Netscape Comment:
                OpenSSL Generated Certificate
            X509v3 Subject Key Identifier:
                E6:53:9C:A3:A3:61:A8:15:33:4B:0F:76:F7:35:77:D6:79:0F:AB:A0
            X509v3 Authority Key Identifier:
                keyid:54:F4:58:AF:9C:7C:62:5F:C5:D3:4C:63:22:05:82:09:88:BE:BB:AD

    Signature Algorithm: sha1WithRSAEncryption
         13:c3:b2:d8:15:97:9c:16:3f:ff:07:76:55:50:46:bd:b5:e0:
         69:d3:1c:44:d0:28:78:a2:4f:5b:dd:fc:c6:5b:03:40:5a:93:
         b9:69:52:c8:2e:d2:6c:3b:d5:65:10:85:6e:92:78:8e:33:70:
         cc:25:18:18:03:8c:81:f2:14:05:b9:01:4f:f6:f9:e8:2a:f0:
         15:8a:15:17:6f:96:b7:12:16:7a:7a:f4:53:38:69:3c:cb:f6:
         da:ce:a0:ff:0f:bc:52:36:85:bb:be:eb:f3:4c:74:6c:99:df:
         19:9a:14:08:88:88:0e:d5:b3:9a:01:46:7a:b8:0e:f4:d1:5f:
         ad:35:fb:1b:97:48:fc:f1:d6:0c:68:ae:1e:81:f4:3c:af:a3:
         57:f9:70:47:14:03:8e:35:bc:c9:d0:0c:67:09:1b:fc:12:cf:
         63:37:3c:d6:78:3a:24:ec:81:69:c0:1b:b8:c9:bd:7e:d8:a2:
         98:aa:f2:e0:16:5e:7a:97:b0:07:09:f7:a2:57:63:c2:0f:85:
         05:e3:59:87:dd:76:31:70:0a:65:ac:ec:f8:63:9c:1e:8a:ab:
         61:00:c5:b6:48:fd:0e:f7:09:72:f0:91:6c:75:4f:09:87:38:
         83:01:3f:1a:58:1c:68:08:35:cd:82:5a:59:dc:89:c8:74:a0:
         aa:4b:a5:02
-----BEGIN CERTIFICATE-----
MIIEFTCCAv2gAwIBAgIJAOTi0z+k2xqIMA0GCSqGSIb3DQEBBQUAMIGLMQswCQYD
VQQGEwJKUDEOMAwGA1UECAwFT3Nha2ExFzAVBgNVBAoMDlBMQU4tQiBjby4sTHRk
MRQwEgYDVQQLDAtTeXN0ZW0gRGl2LjEXMBUGA1UEAwwOUExBTi1CIGNvLixMdGQx
JDAiBgkqhkiG9w0BCQEWFXdlYm1hc3RlckBwYi1ncm91cC50azAeFw0xNDA0MTUw
NzUzMDNaFw0yNDA0MTIwNzUzMDNaMIGKMQswCQYDVQQGEwJKUDEOMAwGA1UECAwF
T3Nha2ExFzAVBgNVBAoMDlBMQU4tQiBjby4sTHRkMRQwEgYDVQQLDAtTeXN0ZW0g
RGl2LjEWMBQGA1UEAwwNKi5wYi1ncm91cC50azEkMCIGCSqGSIb3DQEJARYVd2Vi
bWFzdGVyQHBiLWdyb3VwLnRrMIIBIjANBgkqhkiG9w0BAQEFAAOCAQ8AMIIBCgKC
AQEA1hkiLrl10jBOK9C/26wrX/3ZrWRnLxC1WsbltUngBGJqSrqi03ndTiED7s1p
xwJqb+gow3nOotBc503fP9T6K2sSss4fqjqRkD9IfG/AJqDlCZGaBnY/lI/hS1Ya
mQk97gqKUzRBDcabvO35D3mKP+YyRrYgirLpPC7k2e5r/WLM5J1Zi2IYfN3s9uac
vBv6xKRkYpG5+7HhVSQ50C8fN+GMVQw8J2NBUQW+UR23Rkv8/+wSoZGPqSMLcuHO
ONFC+d470lTEunmBw/FmaLDeuMXoaUT7ctKy+PEIUkifqDaETY5jpFcwuswi2j97
PlSW7ZRRPQlzuL8H/3c7ss23lwIDAQABo3sweTAJBgNVHRMEAjAAMCwGCWCGSAGG
+EIBDQQfFh1PcGVuU1NMIEdlbmVyYXRlZCBDZXJ0aWZpY2F0ZTAdBgNVHQ4EFgQU
5lOco6NhqBUzSw929zV31nkPq6AwHwYDVR0jBBgwFoAUVPRYr5x8Yl/F00xjIgWC
CYi+u60wDQYJKoZIhvcNAQEFBQADggEBABPDstgVl5wWP/8HdlVQRr214GnTHETQ
KHiiT1vd/MZbA0Bak7lpUsgu0mw71WUQhW6SeI4zcMwlGBgDjIHyFAW5AU/2+egq
8BWKFRdvlrcSFnp69FM4aTzL9trOoP8PvFI2hbu+6/NMdGyZ3xmaFAiIiA7Vs5oB
Rnq4DvTRX601+xuXSPzx1gxorh6B9Dyvo1f5cEcUA441vMnQDGcJG/wSz2M3PNZ4
OiTsgWnAG7jJvX7Yopiq8uAWXnqXsAcJ96JXY8IPhQXjWYfddjFwCmWs7PhjnB6K
q2EAxbZI/Q73CXLwkWx1TwmHOIMBPxpYHGgINc2CWlncich0oKpLpQI=
-----END CERTIFICATE-----
